; ModuleID = '32/593.c'
source_filename = "32/593.c"
target datalayout = "e-m:e-p270:32:32-p271:32:32-p272:64:64-i64:64-f80:128-n8:16:32:64-S128"
target triple = "x86_64-pc-linux-gnu"

@.str = private unnamed_addr constant [3 x i8] c"%d\00", align 1
@.str.1 = private unnamed_addr constant [3 x i8] c"%s\00", align 1
@.str.2 = private unnamed_addr constant [4 x i8] c"%d\0A\00", align 1

; Function Attrs: noinline nounwind uwtable
define dso_local void @main() #0 {
  %1 = alloca [101 x i8], align 16
  %2 = alloca [101 x i8], align 16
  %3 = alloca i32, align 4
  %4 = alloca i32, align 4
  %5 = alloca i32, align 4
  %6 = alloca i32, align 4
  %7 = alloca i32, align 4
  %8 = alloca i32, align 4
  %9 = alloca i32, align 4
  store i32 0, i32* %5, align 4
  %10 = call i32 (i8*, ...) @__isoc99_scanf(i8* getelementptr inbounds ([3 x i8], [3 x i8]* @.str, i64 0, i64 0), i32* %9)
  store i32 1, i32* %8, align 4
  br label %11

11:                                               ; preds = %257, %0
  %12 = load i32, i32* %8, align 4
  %13 = load i32, i32* %9, align 4
  %14 = icmp sle i32 %12, %13
  br i1 %14, label %15, label %260

15:                                               ; preds = %11
  store i32 0, i32* %5, align 4
  %16 = getelementptr inbounds [101 x i8], [101 x i8]* %1, i64 0, i64 0
  %17 = call i32 (i8*, ...) @__isoc99_scanf(i8* getelementptr inbounds ([3 x i8], [3 x i8]* @.str.1, i64 0, i64 0), i8* %16)
  %18 = getelementptr inbounds [101 x i8], [101 x i8]* %2, i64 0, i64 0
  %19 = call i32 (i8*, ...) @__isoc99_scanf(i8* getelementptr inbounds ([3 x i8], [3 x i8]* @.str.1, i64 0, i64 0), i8* %18)
  store i32 0, i32* %3, align 4
  br label %20

20:                                               ; preds = %43, %15
  %21 = load i32, i32* %3, align 4
  %22 = icmp sle i32 %21, 100
  br i1 %22, label %23, label %46

23:                                               ; preds = %20
  %24 = load i32, i32* %3, align 4
  %25 = sext i32 %24 to i64
  %26 = getelementptr inbounds [101 x i8], [101 x i8]* %1, i64 0, i64 %25
  %27 = load i8, i8* %26, align 1
  %28 = sext i8 %27 to i32
  %29 = icmp eq i32 %28, 0
  br i1 %29, label %30, label %31

30:                                               ; preds = %23
  br label %46

31:                                               ; preds = %23
  %32 = load i32, i32* %3, align 4
  %33 = sext i32 %32 to i64
  %34 = getelementptr inbounds [101 x i8], [101 x i8]* %1, i64 0, i64 %33
  %35 = load i8, i8* %34, align 1
  %36 = sext i8 %35 to i32
  %37 = sub nsw i32 %36, 48
  %38 = trunc i32 %37 to i8
  %39 = load i32, i32* %3, align 4
  %40 = sext i32 %39 to i64
  %41 = getelementptr inbounds [101 x i8], [101 x i8]* %1, i64 0, i64 %40
  store i8 %38, i8* %41, align 1
  br label %42

42:                                               ; preds = %31
  br label %43

43:                                               ; preds = %42
  %44 = load i32, i32* %3, align 4
  %45 = add nsw i32 %44, 1
  store i32 %45, i32* %3, align 4
  br label %20

46:                                               ; preds = %30, %20
  %47 = load i32, i32* %3, align 4
  %48 = sub nsw i32 %47, 1
  store i32 %48, i32* %6, align 4
  store i32 0, i32* %3, align 4
  br label %49

49:                                               ; preds = %72, %46
  %50 = load i32, i32* %3, align 4
  %51 = icmp sle i32 %50, 100
  br i1 %51, label %52, label %75

52:                                               ; preds = %49
  %53 = load i32, i32* %3, align 4
  %54 = sext i32 %53 to i64
  %55 = getelementptr inbounds [101 x i8], [101 x i8]* %2, i64 0, i64 %54
  %56 = load i8, i8* %55, align 1
  %57 = sext i8 %56 to i32
  %58 = icmp eq i32 %57, 0
  br i1 %58, label %59, label %60

59:                                               ; preds = %52
  br label %75

60:                                               ; preds = %52
  %61 = load i32, i32* %3, align 4
  %62 = sext i32 %61 to i64
  %63 = getelementptr inbounds [101 x i8], [101 x i8]* %2, i64 0, i64 %62
  %64 = load i8, i8* %63, align 1
  %65 = sext i8 %64 to i32
  %66 = sub nsw i32 %65, 48
  %67 = trunc i32 %66 to i8
  %68 = load i32, i32* %3, align 4
  %69 = sext i32 %68 to i64
  %70 = getelementptr inbounds [101 x i8], [101 x i8]* %2, i64 0, i64 %69
  store i8 %67, i8* %70, align 1
  br label %71

71:                                               ; preds = %60
  br label %72

72:                                               ; preds = %71
  %73 = load i32, i32* %3, align 4
  %74 = add nsw i32 %73, 1
  store i32 %74, i32* %3, align 4
  br label %49

75:                                               ; preds = %59, %49
  %76 = load i32, i32* %3, align 4
  %77 = sub nsw i32 %76, 1
  store i32 %77, i32* %7, align 4
  %78 = load i32, i32* %7, align 4
  store i32 %78, i32* %3, align 4
  br label %79

79:                                               ; preds = %168, %75
  %80 = load i32, i32* %3, align 4
  %81 = icmp sge i32 %80, 0
  br i1 %81, label %82, label %171

82:                                               ; preds = %79
  %83 = load i32, i32* %6, align 4
  %84 = load i32, i32* %7, align 4
  %85 = sub nsw i32 %83, %84
  %86 = load i32, i32* %3, align 4
  %87 = add nsw i32 %85, %86
  %88 = sext i32 %87 to i64
  %89 = getelementptr inbounds [101 x i8], [101 x i8]* %1, i64 0, i64 %88
  %90 = load i8, i8* %89, align 1
  %91 = sext i8 %90 to i32
  %92 = load i32, i32* %3, align 4
  %93 = sext i32 %92 to i64
  %94 = getelementptr inbounds [101 x i8], [101 x i8]* %2, i64 0, i64 %93
  %95 = load i8, i8* %94, align 1
  %96 = sext i8 %95 to i32
  %97 = icmp sge i32 %91, %96
  br i1 %97, label %98, label %122

98:                                               ; preds = %82
  %99 = load i32, i32* %6, align 4
  %100 = load i32, i32* %7, align 4
  %101 = sub nsw i32 %99, %100
  %102 = load i32, i32* %3, align 4
  %103 = add nsw i32 %101, %102
  %104 = sext i32 %103 to i64
  %105 = getelementptr inbounds [101 x i8], [101 x i8]* %1, i64 0, i64 %104
  %106 = load i8, i8* %105, align 1
  %107 = sext i8 %106 to i32
  %108 = load i32, i32* %3, align 4
  %109 = sext i32 %108 to i64
  %110 = getelementptr inbounds [101 x i8], [101 x i8]* %2, i64 0, i64 %109
  %111 = load i8, i8* %110, align 1
  %112 = sext i8 %111 to i32
  %113 = sub nsw i32 %107, %112
  %114 = trunc i32 %113 to i8
  %115 = load i32, i32* %6, align 4
  %116 = load i32, i32* %7, align 4
  %117 = sub nsw i32 %115, %116
  %118 = load i32, i32* %3, align 4
  %119 = add nsw i32 %117, %118
  %120 = sext i32 %119 to i64
  %121 = getelementptr inbounds [101 x i8], [101 x i8]* %1, i64 0, i64 %120
  store i8 %114, i8* %121, align 1
  br label %167

122:                                              ; preds = %82
  %123 = load i32, i32* %6, align 4
  %124 = load i32, i32* %7, align 4
  %125 = sub nsw i32 %123, %124
  %126 = load i32, i32* %3, align 4
  %127 = add nsw i32 %125, %126
  %128 = sext i32 %127 to i64
  %129 = getelementptr inbounds [101 x i8], [101 x i8]* %1, i64 0, i64 %128
  %130 = load i8, i8* %129, align 1
  %131 = sext i8 %130 to i32
  %132 = load i32, i32* %3, align 4
  %133 = sext i32 %132 to i64
  %134 = getelementptr inbounds [101 x i8], [101 x i8]* %2, i64 0, i64 %133
  %135 = load i8, i8* %134, align 1
  %136 = sext i8 %135 to i32
  %137 = sub nsw i32 %131, %136
  %138 = add nsw i32 %137, 10
  %139 = trunc i32 %138 to i8
  %140 = load i32, i32* %6, align 4
  %141 = load i32, i32* %7, align 4
  %142 = sub nsw i32 %140, %141
  %143 = load i32, i32* %3, align 4
  %144 = add nsw i32 %142, %143
  %145 = sext i32 %144 to i64
  %146 = getelementptr inbounds [101 x i8], [101 x i8]* %1, i64 0, i64 %145
  store i8 %139, i8* %146, align 1
  %147 = load i32, i32* %6, align 4
  %148 = load i32, i32* %7, align 4
  %149 = sub nsw i32 %147, %148
  %150 = load i32, i32* %3, align 4
  %151 = add nsw i32 %149, %150
  %152 = sub nsw i32 %151, 1
  %153 = sext i32 %152 to i64
  %154 = getelementptr inbounds [101 x i8], [101 x i8]* %1, i64 0, i64 %153
  %155 = load i8, i8* %154, align 1
  %156 = sext i8 %155 to i32
  %157 = sub nsw i32 %156, 1
  %158 = trunc i32 %157 to i8
  %159 = load i32, i32* %6, align 4
  %160 = load i32, i32* %7, align 4
  %161 = sub nsw i32 %159, %160
  %162 = load i32, i32* %3, align 4
  %163 = add nsw i32 %161, %162
  %164 = sub nsw i32 %163, 1
  %165 = sext i32 %164 to i64
  %166 = getelementptr inbounds [101 x i8], [101 x i8]* %1, i64 0, i64 %165
  store i8 %158, i8* %166, align 1
  br label %167

167:                                              ; preds = %122, %98
  br label %168

168:                                              ; preds = %167
  %169 = load i32, i32* %3, align 4
  %170 = add nsw i32 %169, -1
  store i32 %170, i32* %3, align 4
  br label %79

171:                                              ; preds = %79
  store i32 0, i32* %4, align 4
  br label %172

172:                                              ; preds = %188, %171
  %173 = load i32, i32* %4, align 4
  %174 = load i32, i32* %6, align 4
  %175 = icmp sle i32 %173, %174
  br i1 %175, label %176, label %191

176:                                              ; preds = %172
  %177 = load i32, i32* %4, align 4
  %178 = sext i32 %177 to i64
  %179 = getelementptr inbounds [101 x i8], [101 x i8]* %1, i64 0, i64 %178
  %180 = load i8, i8* %179, align 1
  %181 = sext i8 %180 to i32
  %182 = icmp ne i32 %181, 0
  br i1 %182, label %183, label %184

183:                                              ; preds = %176
  br label %191

184:                                              ; preds = %176
  %185 = load i32, i32* %5, align 4
  %186 = add nsw i32 %185, 1
  store i32 %186, i32* %5, align 4
  br label %187

187:                                              ; preds = %184
  br label %188

188:                                              ; preds = %187
  %189 = load i32, i32* %4, align 4
  %190 = add nsw i32 %189, 1
  store i32 %190, i32* %4, align 4
  br label %172

191:                                              ; preds = %183, %172
  %192 = load i32, i32* %5, align 4
  %193 = icmp eq i32 %192, 0
  br i1 %193, label %194, label %222

194:                                              ; preds = %191
  store i32 0, i32* %3, align 4
  br label %195

195:                                              ; preds = %218, %194
  %196 = load i32, i32* %3, align 4
  %197 = load i32, i32* %6, align 4
  %198 = icmp sle i32 %196, %197
  br i1 %198, label %199, label %221

199:                                              ; preds = %195
  %200 = load i32, i32* %3, align 4
  %201 = load i32, i32* %6, align 4
  %202 = icmp eq i32 %200, %201
  br i1 %202, label %203, label %210

203:                                              ; preds = %199
  %204 = load i32, i32* %3, align 4
  %205 = sext i32 %204 to i64
  %206 = getelementptr inbounds [101 x i8], [101 x i8]* %1, i64 0, i64 %205
  %207 = load i8, i8* %206, align 1
  %208 = sext i8 %207 to i32
  %209 = call i32 (i8*, ...) @printf(i8* getelementptr inbounds ([4 x i8], [4 x i8]* @.str.2, i64 0, i64 0), i32 %208)
  br label %217

210:                                              ; preds = %199
  %211 = load i32, i32* %3, align 4
  %212 = sext i32 %211 to i64
  %213 = getelementptr inbounds [101 x i8], [101 x i8]* %1, i64 0, i64 %212
  %214 = load i8, i8* %213, align 1
  %215 = sext i8 %214 to i32
  %216 = call i32 (i8*, ...) @printf(i8* getelementptr inbounds ([3 x i8], [3 x i8]* @.str, i64 0, i64 0), i32 %215)
  br label %217

217:                                              ; preds = %210, %203
  br label %218

218:                                              ; preds = %217
  %219 = load i32, i32* %3, align 4
  %220 = add nsw i32 %219, 1
  store i32 %220, i32* %3, align 4
  br label %195

221:                                              ; preds = %195
  br label %256

222:                                              ; preds = %191
  store i32 0, i32* %3, align 4
  br label %223

223:                                              ; preds = %252, %222
  %224 = load i32, i32* %3, align 4
  %225 = load i32, i32* %6, align 4
  %226 = load i32, i32* %5, align 4
  %227 = sub nsw i32 %225, %226
  %228 = icmp sle i32 %224, %227
  br i1 %228, label %229, label %255

229:                                              ; preds = %223
  %230 = load i32, i32* %3, align 4
  %231 = load i32, i32* %6, align 4
  %232 = load i32, i32* %5, align 4
  %233 = sub nsw i32 %231, %232
  %234 = icmp eq i32 %230, %233
  br i1 %234, label %235, label %244

235:                                              ; preds = %229
  %236 = load i32, i32* %3, align 4
  %237 = load i32, i32* %5, align 4
  %238 = add nsw i32 %236, %237
  %239 = sext i32 %238 to i64
  %240 = getelementptr inbounds [101 x i8], [101 x i8]* %1, i64 0, i64 %239
  %241 = load i8, i8* %240, align 1
  %242 = sext i8 %241 to i32
  %243 = call i32 (i8*, ...) @printf(i8* getelementptr inbounds ([4 x i8], [4 x i8]* @.str.2, i64 0, i64 0), i32 %242)
  br label %251

244:                                              ; preds = %229
  %245 = load i32, i32* %3, align 4
  %246 = sext i32 %245 to i64
  %247 = getelementptr inbounds [101 x i8], [101 x i8]* %1, i64 0, i64 %246
  %248 = load i8, i8* %247, align 1
  %249 = sext i8 %248 to i32
  %250 = call i32 (i8*, ...) @printf(i8* getelementptr inbounds ([3 x i8], [3 x i8]* @.str, i64 0, i64 0), i32 %249)
  br label %251

251:                                              ; preds = %244, %235
  br label %252

252:                                              ; preds = %251
  %253 = load i32, i32* %3, align 4
  %254 = add nsw i32 %253, 1
  store i32 %254, i32* %3, align 4
  br label %223

255:                                              ; preds = %223
  br label %256

256:                                              ; preds = %255, %221
  br label %257

257:                                              ; preds = %256
  %258 = load i32, i32* %8, align 4
  %259 = add nsw i32 %258, 1
  store i32 %259, i32* %8, align 4
  br label %11

260:                                              ; preds = %11
  ret void
}

declare dso_local i32 @__isoc99_scanf(i8*, ...) #1

declare dso_local i32 @printf(i8*, ...) #1


!llvm.module.flags = !{!0}
!llvm.ident = !{!1}

!0 = !{i32 1, !"wchar_size", i32 4}
!1 = !{!"clang version 10.0.0-4ubuntu1 "}
